(dp0
S'tests/test_data/index.html'
p1
S'ea58929928af5ac5e83e365e585b4a57f95e2482cf8c000d285197dab644ab34'
p2
s.(dp0
S'tests/test_data/index.html'
p1
S'ea58929928af5ac5e83e365e585b4a57f95e2482cf8c000d285197dab644ab34'
p2
s.(dp0
S'tests/test_data/index.html'
p1
S'ea58929928af5ac5e83e365e585b4a57f95e2482cf8c000d285197dab644ab34'
p2
s.